; Function Attrs: mustprogress uwtable
define internal void @_ZN12_GLOBAL__N_110smt_solver10pop_paramsEv(ptr noundef nonnull align 8 dereferenceable(1808) %0) unnamed_addr #3 align 2 {
  %2 = getelementptr inbounds nuw i8, ptr %0, i64 1000
  %3 = getelementptr inbounds nuw i8, ptr %0, i64 120
  tail call void @llvm.memcpy.p0.p0.i64(ptr noundef nonnull align 8 dereferenceable(808) %3, ptr noundef nonnull align 8 dereferenceable(808) %2, i64 67, i1 false)
  %4 = getelementptr inbounds nuw i8, ptr %0, i64 192
  %5 = getelementptr inbounds nuw i8, ptr %0, i64 1072
  tail call void @llvm.memcpy.p0.p0.i64(ptr noundef nonnull align 8 dereferenceable(32) %4, ptr noundef nonnull align 8 dereferenceable(32) %5, i64 32, i1 false), !tbaa.struct !359
  %6 = getelementptr inbounds nuw i8, ptr %0, i64 224
  %7 = getelementptr inbounds nuw i8, ptr %0, i64 1104
  tail call void @_ZNSt7__cxx1112basic_stringIcSt11char_traitsIcESaIcEE9_M_assignERKS4_(ptr noundef nonnull align 8 dereferenceable(144) %6, ptr noundef nonnull align 8 dereferenceable(144) %7)
  %8 = getelementptr inbounds nuw i8, ptr %0, i64 256
  %9 = getelementptr inbounds nuw i8, ptr %0, i64 1136
  tail call void @_ZNSt7__cxx1112basic_stringIcSt11char_traitsIcESaIcEE9_M_assignERKS4_(ptr noundef nonnull align 8 dereferenceable(32) %8, ptr noundef nonnull align 8 dereferenceable(32) %9)
  %10 = getelementptr inbounds nuw i8, ptr %0, i64 288
  %11 = getelementptr inbounds nuw i8, ptr %0, i64 1168
  tail call void @llvm.memcpy.p0.p0.i64(ptr noundef nonnull align 8 dereferenceable(80) %10, ptr noundef nonnull align 8 dereferenceable(80) %11, i64 80, i1 false)
  %12 = getelementptr inbounds nuw i8, ptr %0, i64 368
  %13 = getelementptr inbounds nuw i8, ptr %0, i64 1248
  tail call void @llvm.memcpy.p0.p0.i64(ptr noundef nonnull align 8 dereferenceable(147) %12, ptr noundef nonnull align 8 dereferenceable(147) %13, i64 147, i1 false), !tbaa.struct !363
  %14 = getelementptr inbounds nuw i8, ptr %0, i64 516
  %15 = getelementptr inbounds nuw i8, ptr %0, i64 1396
  tail call void @llvm.memcpy.p0.p0.i64(ptr noundef nonnull align 4 dereferenceable(25) %14, ptr noundef nonnull align 4 dereferenceable(25) %15, i64 25, i1 false), !tbaa.struct !368
  %16 = getelementptr inbounds nuw i8, ptr %0, i64 544
  %17 = getelementptr inbounds nuw i8, ptr %0, i64 1424
  tail call void @llvm.memcpy.p0.p0.i64(ptr noundef nonnull align 8 dereferenceable(20) %16, ptr noundef nonnull align 8 dereferenceable(20) %17, i64 20, i1 false), !tbaa.struct !370
  %18 = getelementptr inbounds nuw i8, ptr %0, i64 568
  %19 = getelementptr inbounds nuw i8, ptr %0, i64 1448
  tail call void @llvm.memcpy.p0.p0.i64(ptr noundef nonnull align 8 dereferenceable(38) %18, ptr noundef nonnull align 8 dereferenceable(38) %19, i64 38, i1 false), !tbaa.struct !372
  %20 = getelementptr inbounds nuw i8, ptr %0, i64 608
  %21 = getelementptr inbounds nuw i8, ptr %0, i64 1488
  tail call void @llvm.memcpy.p0.p0.i64(ptr noundef nonnull align 8 dereferenceable(12) %20, ptr noundef nonnull align 8 dereferenceable(12) %21, i64 12, i1 false), !tbaa.struct !373
  %22 = getelementptr inbounds nuw i8, ptr %0, i64 620
  %23 = getelementptr inbounds nuw i8, ptr %0, i64 1500
  tail call void @llvm.memcpy.p0.p0.i64(ptr noundef nonnull align 4 dereferenceable(5) %22, ptr noundef nonnull align 4 dereferenceable(5) %23, i64 5, i1 false), !tbaa.struct !374
  %24 = getelementptr inbounds nuw i8, ptr %0, i64 628
  %25 = getelementptr inbounds nuw i8, ptr %0, i64 1508
  %26 = load i32, ptr %25, align 4, !tbaa !248
  store i32 %26, ptr %24, align 4, !tbaa !248
  %27 = getelementptr inbounds nuw i8, ptr %0, i64 632
  %28 = getelementptr inbounds nuw i8, ptr %0, i64 1512
  tail call void @llvm.memcpy.p0.p0.i64(ptr noundef nonnull align 8 dereferenceable(296) %27, ptr noundef nonnull align 8 dereferenceable(296) %28, i64 296, i1 false)
  %29 = getelementptr inbounds nuw i8, ptr %0, i64 992
  tail call void @_ZN6solver12reset_paramsERK10params_ref(ptr noundef nonnull align 8 dereferenceable(96) %0, ptr noundef nonnull align 8 dereferenceable(8) %29)
  ret void
}